target datalayout = "e-m:e-p270:32:32-p271:32:32-p272:64:64-i64:64-i128:128-f80:128-n8:16:32:64-S128"
target triple = "x86_64-pc-linux-gnu"

%struct.zb_direct_service_t = type { ptr, ptr, ptr }

@proto_zb_direct = internal global i32 0, align 4
@bluetooth_uuids = external global ptr, align 8
@.str.101 = private unnamed_addr constant [15 x i8] c"bluetooth.uuid\00", align 1
@.str.102 = private unnamed_addr constant [9 x i8] c"zbee_nwk\00", align 1
@zbee_nwk_handle = internal global ptr null, align 8

; Function Attrs: null_pointer_is_valid sspstrong uwtable
define hidden void @proto_reg_handoff_zb_direct() #0 {
  %1 = alloca i64, align 8
  %2 = alloca ptr, align 8
  call void @llvm.lifetime.start.p0(i64 8, ptr %1) #13
  store i64 0, ptr %1, align 8
  br label %3

3:                                                ; preds = %35, %0
  %4 = load i64, ptr %1, align 8
  %5 = getelementptr [14 x %struct.zb_direct_service_t], ptr @proto_reg_handoff_zb_direct.services, i64 0, i64 %4
  %6 = getelementptr inbounds nuw %struct.zb_direct_service_t, ptr %5, i32 0, i32 0
  %7 = load ptr, ptr %6, align 8
  %8 = icmp ne ptr %7, null
  br i1 %8, label %10, label %9

9:                                                ; preds = %3
  call void @llvm.lifetime.end.p0(i64 8, ptr %1) #13
  br label %38

10:                                               ; preds = %3
  %11 = load ptr, ptr @bluetooth_uuids, align 8
  %12 = load i64, ptr %1, align 8
  %13 = getelementptr [14 x %struct.zb_direct_service_t], ptr @proto_reg_handoff_zb_direct.services, i64 0, i64 %12
  %14 = getelementptr inbounds nuw %struct.zb_direct_service_t, ptr %13, i32 0, i32 0
  %15 = load ptr, ptr %14, align 8
  %16 = load i64, ptr %1, align 8
  %17 = getelementptr [14 x %struct.zb_direct_service_t], ptr @proto_reg_handoff_zb_direct.services, i64 0, i64 %16
  %18 = getelementptr inbounds nuw %struct.zb_direct_service_t, ptr %17, i32 0, i32 1
  %19 = load ptr, ptr %18, align 8
  call void @wmem_tree_insert_string(ptr noundef %11, ptr noundef %15, ptr noundef %19, i32 noundef 0)
  call void @llvm.lifetime.start.p0(i64 8, ptr %2) #13
  %20 = load i64, ptr %1, align 8
  %21 = getelementptr [14 x %struct.zb_direct_service_t], ptr @proto_reg_handoff_zb_direct.services, i64 0, i64 %20
  %22 = getelementptr inbounds nuw %struct.zb_direct_service_t, ptr %21, i32 0, i32 2
  %23 = load ptr, ptr %22, align 8
  %24 = load i32, ptr @proto_zb_direct, align 4
  %25 = load i64, ptr %1, align 8
  %26 = getelementptr [14 x %struct.zb_direct_service_t], ptr @proto_reg_handoff_zb_direct.services, i64 0, i64 %25
  %27 = getelementptr inbounds nuw %struct.zb_direct_service_t, ptr %26, i32 0, i32 1
  %28 = load ptr, ptr %27, align 8
  %29 = call ptr @create_dissector_handle_with_name_and_description(ptr noundef %23, i32 noundef %24, ptr noundef null, ptr noundef %28)
  store ptr %29, ptr %2, align 8
  %30 = load i64, ptr %1, align 8
  %31 = getelementptr [14 x %struct.zb_direct_service_t], ptr @proto_reg_handoff_zb_direct.services, i64 0, i64 %30
  %32 = getelementptr inbounds nuw %struct.zb_direct_service_t, ptr %31, i32 0, i32 0
  %33 = load ptr, ptr %32, align 8
  %34 = load ptr, ptr %2, align 8
  call void @dissector_add_string(ptr noundef @.str.101, ptr noundef %33, ptr noundef %34)
  call void @llvm.lifetime.end.p0(i64 8, ptr %2) #13
  br label %35

35:                                               ; preds = %10
  %36 = load i64, ptr %1, align 8
  %37 = add i64 %36, 1
  store i64 %37, ptr %1, align 8
  br label %3, !llvm.loop !15

38:                                               ; preds = %9
  %39 = call ptr @find_dissector(ptr noundef @.str.102)
  store ptr %39, ptr @zbee_nwk_handle, align 8
  ret void
}